target datalayout = "e-m:e-p270:32:32-p271:32:32-p272:64:64-i64:64-i128:128-f80:128-n8:16:32:64-S128"
target triple = "x86_64-pc-linux-gnu"

%struct.Abc_BddMan_ = type { i32, i32, i32, ptr, ptr, ptr, ptr, ptr, ptr, i32, i32, i32, i32, i64 }

@.str.4 = private unnamed_addr constant [10 x i8] c"BDD %d = \00", align 1
@.str.5 = private unnamed_addr constant [2 x i8] c"\0A\00", align 1

; Function Attrs: nounwind uwtable
define void @Abc_BddPrint(ptr noundef %0, i32 noundef %1) #0 {
  %3 = alloca ptr, align 8
  %4 = alloca i32, align 4
  %5 = alloca ptr, align 8
  store ptr %0, ptr %3, align 8, !tbaa !7
  store i32 %1, ptr %4, align 4, !tbaa !3
  call void @llvm.lifetime.start.p0(i64 8, ptr %5) #9
  %6 = load ptr, ptr %3, align 8, !tbaa !7
  %7 = getelementptr inbounds nuw %struct.Abc_BddMan_, ptr %6, i32 0, i32 0
  %8 = load i32, ptr %7, align 8, !tbaa !10
  %9 = sext i32 %8 to i64
  %10 = mul i64 4, %9
  %11 = call noalias ptr @malloc(i64 noundef %10) #11
  %12 = load ptr, ptr %3, align 8, !tbaa !7
  %13 = getelementptr inbounds nuw %struct.Abc_BddMan_, ptr %12, i32 0, i32 0
  %14 = load i32, ptr %13, align 8, !tbaa !10
  %15 = sext i32 %14 to i64
  %16 = mul i64 4, %15
  call void @llvm.memset.p0.i64(ptr align 1 %11, i8 -1, i64 %16, i1 false)
  store ptr %11, ptr %5, align 8, !tbaa !32
  %17 = load i32, ptr %4, align 4, !tbaa !3
  %18 = call i32 (ptr, ...) @printf(ptr noundef @.str.4, i32 noundef %17)
  %19 = load ptr, ptr %3, align 8, !tbaa !7
  %20 = load i32, ptr %4, align 4, !tbaa !3
  %21 = load ptr, ptr %5, align 8, !tbaa !32
  call void @Abc_BddPrint_rec(ptr noundef %19, i32 noundef %20, ptr noundef %21)
  %22 = load ptr, ptr %5, align 8, !tbaa !32
  %23 = icmp ne ptr %22, null
  br i1 %23, label %24, label %26

24:                                               ; preds = %2
  %25 = load ptr, ptr %5, align 8, !tbaa !32
  call void @free(ptr noundef %25) #9
  store ptr null, ptr %5, align 8, !tbaa !32
  br label %27

26:                                               ; preds = %2
  br label %27

27:                                               ; preds = %26, %24
  %28 = call i32 (ptr, ...) @printf(ptr noundef @.str.5)
  call void @llvm.lifetime.end.p0(i64 8, ptr %5) #9
  ret void
}