; Function Attrs: nounwind uwtable
define void @Abc_BddPrint(ptr noundef %0, i32 noundef %1) local_unnamed_addr #2 {
  %3 = load i32, ptr %0, align 8, !tbaa !3
  %4 = sext i32 %3 to i64
  %5 = shl nsw i64 %4, 2
  %6 = tail call noalias ptr @malloc(i64 noundef %5) #14
  tail call void @llvm.memset.p0.i64(ptr align 1 %6, i8 -1, i64 %5, i1 false)
  %7 = tail call i32 (ptr, ...) @printf(ptr noundef nonnull dereferenceable(1) @.str.4, i32 noundef %1)
  tail call void @Abc_BddPrint_rec(ptr noundef nonnull %0, i32 noundef %1, ptr noundef %6)
  %.not = icmp eq ptr %6, null
  br i1 %.not, label %9, label %8

8:                                                ; preds = %2
  tail call void @free(ptr noundef nonnull %6) #13
  br label %9

9:                                                ; preds = %2, %8
  %putchar = tail call i32 @putchar(i32 10)
  ret void
}